target datalayout = "e-m:e-p270:32:32-p271:32:32-p272:64:64-i64:64-i128:128-f80:128-n8:16:32:64-S128"
target triple = "x86_64-pc-linux-gnu"

%struct.ID3v2EncContext = type { i32, i64, i32 }
%struct.AVFormatContext = type { ptr, ptr, ptr, ptr, ptr, i32, i32, ptr, i32, ptr, i32, ptr, ptr, i64, i64, i64, i32, i32, i32, i64, i64, ptr, i32, i32, ptr, i32, i32, i32, i32, ptr, i64, i32, i32, %struct.AVIOInterruptCB, i32, i32, i32, i32, i64, i32, i32, i32, i32, i32, i32, i32, i32, i32, i32, i32, i32, i64, i32, i32, i32, i32, i32, ptr, ptr, ptr, ptr, i32, ptr, ptr, ptr, ptr, i32, ptr, ptr, i64, ptr, ptr, ptr, i64 }
%struct.AVIOInterruptCB = type { ptr, ptr }

; Function Attrs: nounwind uwtable
define internal void @id3v2_put_size(ptr noundef %0, i32 noundef %1) #0 {
  %3 = alloca ptr, align 8
  %4 = alloca i32, align 4
  store ptr %0, ptr %3, align 8, !tbaa !9
  store i32 %1, ptr %4, align 4, !tbaa !11
  %5 = load ptr, ptr %3, align 8, !tbaa !9
  %6 = load i32, ptr %4, align 4, !tbaa !11
  %7 = ashr i32 %6, 21
  %8 = and i32 %7, 127
  call void @avio_w8(ptr noundef %5, i32 noundef %8)
  %9 = load ptr, ptr %3, align 8, !tbaa !9
  %10 = load i32, ptr %4, align 4, !tbaa !11
  %11 = ashr i32 %10, 14
  %12 = and i32 %11, 127
  call void @avio_w8(ptr noundef %9, i32 noundef %12)
  %13 = load ptr, ptr %3, align 8, !tbaa !9
  %14 = load i32, ptr %4, align 4, !tbaa !11
  %15 = ashr i32 %14, 7
  %16 = and i32 %15, 127
  call void @avio_w8(ptr noundef %13, i32 noundef %16)
  %17 = load ptr, ptr %3, align 8, !tbaa !9
  %18 = load i32, ptr %4, align 4, !tbaa !11
  %19 = and i32 %18, 127
  call void @avio_w8(ptr noundef %17, i32 noundef %19)
  ret void
}

; Function Attrs: alwaysinline nounwind willreturn memory(none) uwtable
define internal i32 @av_clip_c(i32 noundef %0, i32 noundef %1, i32 noundef %2) #4 {
  %4 = alloca i32, align 4
  %5 = alloca i32, align 4
  %6 = alloca i32, align 4
  %7 = alloca i32, align 4
  store i32 %0, ptr %5, align 4, !tbaa !11
  store i32 %1, ptr %6, align 4, !tbaa !11
  store i32 %2, ptr %7, align 4, !tbaa !11
  %8 = load i32, ptr %5, align 4, !tbaa !11
  %9 = load i32, ptr %6, align 4, !tbaa !11
  %10 = icmp slt i32 %8, %9
  br i1 %10, label %11, label %13

11:                                               ; preds = %3
  %12 = load i32, ptr %6, align 4, !tbaa !11
  store i32 %12, ptr %4, align 4
  br label %21

13:                                               ; preds = %3
  %14 = load i32, ptr %5, align 4, !tbaa !11
  %15 = load i32, ptr %7, align 4, !tbaa !11
  %16 = icmp sgt i32 %14, %15
  br i1 %16, label %17, label %19

17:                                               ; preds = %13
  %18 = load i32, ptr %7, align 4, !tbaa !11
  store i32 %18, ptr %4, align 4
  br label %21

19:                                               ; preds = %13
  %20 = load i32, ptr %5, align 4, !tbaa !11
  store i32 %20, ptr %4, align 4
  br label %21

21:                                               ; preds = %19, %17, %11
  %22 = load i32, ptr %4, align 4
  ret i32 %22
}

; Function Attrs: alwaysinline nounwind uwtable
define internal i64 @avio_tell(ptr noundef %0) #2 {
  %2 = alloca ptr, align 8
  store ptr %0, ptr %2, align 8, !tbaa !9
  %3 = load ptr, ptr %2, align 8, !tbaa !9
  %4 = call i64 @avio_seek(ptr noundef %3, i64 noundef 0, i32 noundef 1)
  ret i64 %4
}

; Function Attrs: nounwind uwtable
define void @ff_id3v2_finish(ptr noundef %0, ptr noundef %1, i32 noundef %2) #0 {
  %4 = alloca ptr, align 8
  %5 = alloca ptr, align 8
  %6 = alloca i32, align 4
  %7 = alloca i64, align 8
  store ptr %0, ptr %4, align 8, !tbaa !4
  store ptr %1, ptr %5, align 8, !tbaa !9
  store i32 %2, ptr %6, align 4, !tbaa !11
  call void @llvm.lifetime.start.p0(i64 8, ptr %7) #11
  %8 = load i32, ptr %6, align 4, !tbaa !11
  %9 = icmp slt i32 %8, 0
  br i1 %9, label %10, label %11

10:                                               ; preds = %3
  store i32 10, ptr %6, align 4, !tbaa !11
  br label %11

11:                                               ; preds = %10, %3
  %12 = load i32, ptr %6, align 4, !tbaa !11
  %13 = load ptr, ptr %4, align 8, !tbaa !4
  %14 = getelementptr inbounds nuw %struct.ID3v2EncContext, ptr %13, i32 0, i32 2
  %15 = load i32, ptr %14, align 8, !tbaa !43
  %16 = sub nsw i32 268435455, %15
  %17 = call i32 @av_clip_c(i32 noundef %12, i32 noundef 10, i32 noundef %16) #12
  store i32 %17, ptr %6, align 4, !tbaa !11
  %18 = load ptr, ptr %5, align 8, !tbaa !9
  %19 = load i32, ptr %6, align 4, !tbaa !11
  %20 = sext i32 %19 to i64
  call void @ffio_fill(ptr noundef %18, i32 noundef 0, i64 noundef %20)
  %21 = load i32, ptr %6, align 4, !tbaa !11
  %22 = load ptr, ptr %4, align 8, !tbaa !4
  %23 = getelementptr inbounds nuw %struct.ID3v2EncContext, ptr %22, i32 0, i32 2
  %24 = load i32, ptr %23, align 8, !tbaa !43
  %25 = add nsw i32 %24, %21
  store i32 %25, ptr %23, align 8, !tbaa !43
  %26 = load ptr, ptr %5, align 8, !tbaa !9
  %27 = call i64 @avio_tell(ptr noundef %26)
  store i64 %27, ptr %7, align 8, !tbaa !83
  %28 = load ptr, ptr %5, align 8, !tbaa !9
  %29 = load ptr, ptr %4, align 8, !tbaa !4
  %30 = getelementptr inbounds nuw %struct.ID3v2EncContext, ptr %29, i32 0, i32 1
  %31 = load i64, ptr %30, align 8, !tbaa !19
  %32 = call i64 @avio_seek(ptr noundef %28, i64 noundef %31, i32 noundef 0)
  %33 = load ptr, ptr %5, align 8, !tbaa !9
  %34 = load ptr, ptr %4, align 8, !tbaa !4
  %35 = getelementptr inbounds nuw %struct.ID3v2EncContext, ptr %34, i32 0, i32 2
  %36 = load i32, ptr %35, align 8, !tbaa !43
  call void @id3v2_put_size(ptr noundef %33, i32 noundef %36)
  %37 = load ptr, ptr %5, align 8, !tbaa !9
  %38 = load i64, ptr %7, align 8, !tbaa !83
  %39 = call i64 @avio_seek(ptr noundef %37, i64 noundef %38, i32 noundef 0)
  call void @llvm.lifetime.end.p0(i64 8, ptr %7) #11
  ret void
}

; Function Attrs: nounwind uwtable
define void @ff_id3v2_start(ptr noundef %0, ptr noundef %1, i32 noundef %2, ptr noundef %3) #0 {
  %5 = alloca ptr, align 8
  %6 = alloca ptr, align 8
  %7 = alloca i32, align 4
  %8 = alloca ptr, align 8
  store ptr %0, ptr %5, align 8, !tbaa !4
  store ptr %1, ptr %6, align 8, !tbaa !9
  store i32 %2, ptr %7, align 4, !tbaa !11
  store ptr %3, ptr %8, align 8, !tbaa !13
  %9 = load i32, ptr %7, align 4, !tbaa !11
  %10 = load ptr, ptr %5, align 8, !tbaa !4
  %11 = getelementptr inbounds nuw %struct.ID3v2EncContext, ptr %10, i32 0, i32 0
  store i32 %9, ptr %11, align 8, !tbaa !15
  %12 = load ptr, ptr %6, align 8, !tbaa !9
  %13 = load i32, ptr %7, align 4, !tbaa !11
  %14 = load ptr, ptr %8, align 8, !tbaa !13
  %15 = getelementptr inbounds i8, ptr %14, i64 2
  %16 = load i8, ptr %15, align 1, !tbaa !18
  %17 = sext i8 %16 to i32
  %18 = shl i32 %17, 8
  %19 = or i32 %13, %18
  %20 = load ptr, ptr %8, align 8, !tbaa !13
  %21 = getelementptr inbounds i8, ptr %20, i64 1
  %22 = load i8, ptr %21, align 1, !tbaa !18
  %23 = sext i8 %22 to i32
  %24 = shl i32 %23, 16
  %25 = or i32 %19, %24
  %26 = load ptr, ptr %8, align 8, !tbaa !13
  %27 = getelementptr inbounds i8, ptr %26, i64 0
  %28 = load i8, ptr %27, align 1, !tbaa !18
  %29 = sext i8 %28 to i32
  %30 = shl i32 %29, 24
  %31 = or i32 %25, %30
  call void @avio_wb32(ptr noundef %12, i32 noundef %31)
  %32 = load ptr, ptr %6, align 8, !tbaa !9
  call void @avio_w8(ptr noundef %32, i32 noundef 0)
  %33 = load ptr, ptr %6, align 8, !tbaa !9
  call void @avio_w8(ptr noundef %33, i32 noundef 0)
  %34 = load ptr, ptr %6, align 8, !tbaa !9
  %35 = call i64 @avio_tell(ptr noundef %34)
  %36 = load ptr, ptr %5, align 8, !tbaa !4
  %37 = getelementptr inbounds nuw %struct.ID3v2EncContext, ptr %36, i32 0, i32 1
  store i64 %35, ptr %37, align 8, !tbaa !19
  %38 = load ptr, ptr %6, align 8, !tbaa !9
  call void @avio_wb32(ptr noundef %38, i32 noundef 0)
  ret void
}

; Function Attrs: nounwind uwtable
define i32 @ff_id3v2_write_simple(ptr noundef %0, i32 noundef %1, ptr noundef %2) #0 {
  %4 = alloca i32, align 4
  %5 = alloca ptr, align 8
  %6 = alloca i32, align 4
  %7 = alloca ptr, align 8
  %8 = alloca %struct.ID3v2EncContext, align 8
  %9 = alloca i32, align 4
  %10 = alloca i32, align 4
  store ptr %0, ptr %5, align 8, !tbaa !20
  store i32 %1, ptr %6, align 4, !tbaa !11
  store ptr %2, ptr %7, align 8, !tbaa !13
  call void @llvm.lifetime.start.p0(i64 24, ptr %8) #11
  call void @llvm.memset.p0.i64(ptr align 8 %8, i8 0, i64 24, i1 false)
  call void @llvm.lifetime.start.p0(i64 4, ptr %9) #11
  %11 = load ptr, ptr %5, align 8, !tbaa !20
  %12 = getelementptr inbounds nuw %struct.AVFormatContext, ptr %11, i32 0, i32 4
  %13 = load ptr, ptr %12, align 8, !tbaa !22
  %14 = load i32, ptr %6, align 4, !tbaa !11
  %15 = load ptr, ptr %7, align 8, !tbaa !13
  call void @ff_id3v2_start(ptr noundef %8, ptr noundef %13, i32 noundef %14, ptr noundef %15)
  %16 = load ptr, ptr %5, align 8, !tbaa !20
  %17 = call i32 @ff_id3v2_write_metadata(ptr noundef %16, ptr noundef %8)
  store i32 %17, ptr %9, align 4, !tbaa !11
  %18 = icmp slt i32 %17, 0
  br i1 %18, label %19, label %21

19:                                               ; preds = %3
  %20 = load i32, ptr %9, align 4, !tbaa !11
  store i32 %20, ptr %4, align 4
  store i32 1, ptr %10, align 4
  br label %28

21:                                               ; preds = %3
  %22 = load ptr, ptr %5, align 8, !tbaa !20
  %23 = getelementptr inbounds nuw %struct.AVFormatContext, ptr %22, i32 0, i32 4
  %24 = load ptr, ptr %23, align 8, !tbaa !22
  %25 = load ptr, ptr %5, align 8, !tbaa !20
  %26 = getelementptr inbounds nuw %struct.AVFormatContext, ptr %25, i32 0, i32 66
  %27 = load i32, ptr %26, align 8, !tbaa !84
  call void @ff_id3v2_finish(ptr noundef %8, ptr noundef %24, i32 noundef %27)
  store i32 0, ptr %4, align 4
  store i32 1, ptr %10, align 4
  br label %28

28:                                               ; preds = %21, %19
  call void @llvm.lifetime.end.p0(i64 4, ptr %9) #11
  call void @llvm.lifetime.end.p0(i64 24, ptr %8) #11
  %29 = load i32, ptr %4, align 4
  ret i32 %29
}