; Function Attrs: nounwind uwtable
define range(i32 -2147483648, 1) i32 @ff_id3v2_write_simple(ptr noundef %0, i32 noundef %1, ptr noundef readonly captures(none) %2) local_unnamed_addr #0 {
  %4 = alloca %struct.ID3v2EncContext, align 8
  call void @llvm.lifetime.start.p0(i64 24, ptr nonnull %4) #9
  call void @llvm.memset.p0.i64(ptr noundef nonnull align 8 dereferenceable(24) %4, i8 0, i64 24, i1 false)
  %5 = getelementptr inbounds nuw i8, ptr %0, i64 32
  %6 = load ptr, ptr %5, align 8, !tbaa !12
  store i32 %1, ptr %4, align 8, !tbaa !4
  %7 = getelementptr inbounds nuw i8, ptr %2, i64 2
  %8 = load i8, ptr %7, align 1, !tbaa !10
  %9 = sext i8 %8 to i32
  %10 = shl nsw i32 %9, 8
  %11 = getelementptr inbounds nuw i8, ptr %2, i64 1
  %12 = load i8, ptr %11, align 1, !tbaa !10
  %13 = sext i8 %12 to i32
  %14 = shl nsw i32 %13, 16
  %15 = load i8, ptr %2, align 1, !tbaa !10
  %16 = sext i8 %15 to i32
  %17 = shl nsw i32 %16, 24
  %18 = or i32 %10, %14
  %19 = or i32 %18, %17
  %20 = or i32 %19, %1
  tail call void @avio_wb32(ptr noundef %6, i32 noundef %20) #9
  tail call void @avio_w8(ptr noundef %6, i32 noundef 0) #9
  tail call void @avio_w8(ptr noundef %6, i32 noundef 0) #9
  %21 = tail call i64 @avio_seek(ptr noundef %6, i64 noundef 0, i32 noundef 1) #9
  %22 = getelementptr inbounds nuw i8, ptr %4, i64 8
  store i64 %21, ptr %22, align 8, !tbaa !11
  tail call void @avio_wb32(ptr noundef %6, i32 noundef 0) #9
  %23 = call i32 @ff_id3v2_write_metadata(ptr noundef %0, ptr noundef nonnull %4)
  %24 = icmp slt i32 %23, 0
  br i1 %24, label %47, label %25

25:                                               ; preds = %3
  %26 = load ptr, ptr %5, align 8, !tbaa !12
  %27 = getelementptr inbounds nuw i8, ptr %0, i64 408
  %28 = load i32, ptr %27, align 8, !tbaa !74
  %29 = icmp slt i32 %28, 0
  %spec.store.select.i = select i1 %29, i32 10, i32 %28
  %30 = getelementptr inbounds nuw i8, ptr %4, i64 16
  %31 = load i32, ptr %30, align 8, !tbaa !32
  %32 = sub nsw i32 268435455, %31
  %33 = icmp samesign ult i32 %spec.store.select.i, 10
  %..i.i = tail call i32 @llvm.smin.i32(i32 %spec.store.select.i, i32 %32)
  %.0.i.i = select i1 %33, i32 10, i32 %..i.i
  %34 = sext i32 %.0.i.i to i64
  tail call void @ffio_fill(ptr noundef %26, i32 noundef 0, i64 noundef %34) #9
  %35 = add nsw i32 %.0.i.i, %31
  %36 = tail call i64 @avio_seek(ptr noundef %26, i64 noundef 0, i32 noundef 1) #9
  %37 = load i64, ptr %22, align 8, !tbaa !11
  %38 = tail call i64 @avio_seek(ptr noundef %26, i64 noundef %37, i32 noundef 0) #9
  %39 = lshr i32 %35, 21
  %40 = and i32 %39, 127
  tail call void @avio_w8(ptr noundef %26, i32 noundef %40) #9
  %41 = lshr i32 %35, 14
  %42 = and i32 %41, 127
  tail call void @avio_w8(ptr noundef %26, i32 noundef %42) #9
  %43 = lshr i32 %35, 7
  %44 = and i32 %43, 127
  tail call void @avio_w8(ptr noundef %26, i32 noundef %44) #9
  %45 = and i32 %35, 127
  tail call void @avio_w8(ptr noundef %26, i32 noundef %45) #9
  %46 = tail call i64 @avio_seek(ptr noundef %26, i64 noundef %36, i32 noundef 0) #9
  br label %47

47:                                               ; preds = %3, %25
  call void @llvm.lifetime.end.p0(i64 24, ptr nonnull %4) #9
  ret i32 %23
}